target datalayout = "e-m:e-p270:32:32-p271:32:32-p272:64:64-i64:64-i128:128-f80:128-n8:16:32:64-S128"
target triple = "x86_64-pc-linux-gnu"

%struct.AVFormatContext = type { ptr, ptr, ptr, ptr, ptr, i32, i32, ptr, i32, ptr, i32, ptr, ptr, i64, i64, i64, i32, i32, i32, i64, i64, ptr, i32, i32, ptr, i32, i32, i32, i32, ptr, i64, i32, i32, %struct.AVIOInterruptCB, i32, i32, i32, i32, i64, i32, i32, i32, i32, i32, i32, i32, i32, i32, i32, i32, i32, i64, i32, i32, i32, i32, i32, ptr, ptr, ptr, ptr, i32, ptr, ptr, ptr, ptr, i32, ptr, ptr, i64, ptr, ptr, ptr, i64 }
%struct.AVIOInterruptCB = type { ptr, ptr }
%struct.MatroskaDemuxContext = type { ptr, ptr, [16 x %struct.MatroskaLevel], i32, i32, i64, i32, i64, double, ptr, ptr, %struct.EbmlBin, %struct.EbmlList, %struct.EbmlList, %struct.EbmlList, %struct.EbmlList, %struct.EbmlList, %struct.EbmlList, i64, ptr, %struct.PacketList, i32, i32, i64, i32, [64 x %struct.MatroskaLevel1Element], i32, %struct.MatroskaCluster, i32, i32, i32 }
%struct.MatroskaLevel = type { i64, i64 }
%struct.EbmlBin = type { i32, ptr, ptr, i64 }
%struct.EbmlList = type { i32, i32, ptr }
%struct.PacketList = type { ptr, ptr }
%struct.MatroskaLevel1Element = type { i64, i32, i32 }
%struct.MatroskaCluster = type { %struct.MatroskaBlock, i64, i64 }
%struct.MatroskaBlock = type { i64, %struct.CountedElement, i64, %struct.EbmlBin, %struct.EbmlList, i64 }
%struct.CountedElement = type { %union.anon.0, i32 }
%union.anon.0 = type { i64 }
%struct.AVIOContext = type { ptr, ptr, i32, ptr, ptr, ptr, ptr, ptr, ptr, i64, i32, i32, i32, i32, i32, i64, ptr, ptr, ptr, ptr, i32, i32, ptr, ptr, ptr, i32, ptr, i64, i64 }

@ff_log2_tab = external constant [256 x i8], align 16
@.str.121 = private unnamed_addr constant [83 x i8] c"Seek to desired resync point failed. Seeking to earliest point available instead.\0A\00", align 1

; Function Attrs: alwaysinline nounwind willreturn memory(none) uwtable
define internal i32 @ff_log2_c(i32 noundef %0) #7 {
  %2 = alloca i32, align 4
  %3 = alloca i32, align 4
  store i32 %0, ptr %2, align 4, !tbaa !9
  call void @llvm.lifetime.start.p0(i64 4, ptr %3) #14
  store i32 0, ptr %3, align 4, !tbaa !9
  %4 = load i32, ptr %2, align 4, !tbaa !9
  %5 = and i32 %4, -65536
  %6 = icmp ne i32 %5, 0
  br i1 %6, label %7, label %12

7:                                                ; preds = %1
  %8 = load i32, ptr %2, align 4, !tbaa !9
  %9 = lshr i32 %8, 16
  store i32 %9, ptr %2, align 4, !tbaa !9
  %10 = load i32, ptr %3, align 4, !tbaa !9
  %11 = add nsw i32 %10, 16
  store i32 %11, ptr %3, align 4, !tbaa !9
  br label %12

12:                                               ; preds = %7, %1
  %13 = load i32, ptr %2, align 4, !tbaa !9
  %14 = and i32 %13, 65280
  %15 = icmp ne i32 %14, 0
  br i1 %15, label %16, label %21

16:                                               ; preds = %12
  %17 = load i32, ptr %2, align 4, !tbaa !9
  %18 = lshr i32 %17, 8
  store i32 %18, ptr %2, align 4, !tbaa !9
  %19 = load i32, ptr %3, align 4, !tbaa !9
  %20 = add nsw i32 %19, 8
  store i32 %20, ptr %3, align 4, !tbaa !9
  br label %21

21:                                               ; preds = %16, %12
  %22 = load i32, ptr %2, align 4, !tbaa !9
  %23 = zext i32 %22 to i64
  %24 = getelementptr inbounds nuw [256 x i8], ptr @ff_log2_tab, i64 0, i64 %23
  %25 = load i8, ptr %24, align 1, !tbaa !69
  %26 = zext i8 %25 to i32
  %27 = load i32, ptr %3, align 4, !tbaa !9
  %28 = add nsw i32 %27, %26
  store i32 %28, ptr %3, align 4, !tbaa !9
  %29 = load i32, ptr %3, align 4, !tbaa !9
  call void @llvm.lifetime.end.p0(i64 4, ptr %3) #14
  ret i32 %29
}

; Function Attrs: nounwind uwtable
define internal i32 @matroska_reset_status(ptr noundef %0, i32 noundef %1, i64 noundef %2) #0 {
  %4 = alloca ptr, align 8
  %5 = alloca i32, align 4
  %6 = alloca i64, align 8
  %7 = alloca i64, align 8
  store ptr %0, ptr %4, align 8, !tbaa !27
  store i32 %1, ptr %5, align 4, !tbaa !9
  store i64 %2, ptr %6, align 8, !tbaa !49
  call void @llvm.lifetime.start.p0(i64 8, ptr %7) #14
  store i64 0, ptr %7, align 8, !tbaa !49
  %8 = load i64, ptr %6, align 8, !tbaa !49
  %9 = icmp sge i64 %8, 0
  br i1 %9, label %10, label %22

10:                                               ; preds = %3
  %11 = load ptr, ptr %4, align 8, !tbaa !27
  %12 = getelementptr inbounds nuw %struct.MatroskaDemuxContext, ptr %11, i32 0, i32 1
  %13 = load ptr, ptr %12, align 8, !tbaa !79
  %14 = getelementptr inbounds nuw %struct.AVFormatContext, ptr %13, i32 0, i32 4
  %15 = load ptr, ptr %14, align 8, !tbaa !48
  %16 = load i64, ptr %6, align 8, !tbaa !49
  %17 = call i64 @avio_seek(ptr noundef %15, i64 noundef %16, i32 noundef 0)
  store i64 %17, ptr %7, align 8, !tbaa !49
  %18 = load i64, ptr %7, align 8, !tbaa !49
  %19 = icmp sgt i64 %18, 0
  br i1 %19, label %20, label %21

20:                                               ; preds = %10
  store i64 0, ptr %7, align 8, !tbaa !49
  br label %21

21:                                               ; preds = %20, %10
  br label %29

22:                                               ; preds = %3
  %23 = load ptr, ptr %4, align 8, !tbaa !27
  %24 = getelementptr inbounds nuw %struct.MatroskaDemuxContext, ptr %23, i32 0, i32 1
  %25 = load ptr, ptr %24, align 8, !tbaa !79
  %26 = getelementptr inbounds nuw %struct.AVFormatContext, ptr %25, i32 0, i32 4
  %27 = load ptr, ptr %26, align 8, !tbaa !48
  %28 = call i64 @avio_tell(ptr noundef %27)
  store i64 %28, ptr %6, align 8, !tbaa !49
  br label %29

29:                                               ; preds = %22, %21
  %30 = load i32, ptr %5, align 4, !tbaa !9
  %31 = load ptr, ptr %4, align 8, !tbaa !27
  %32 = getelementptr inbounds nuw %struct.MatroskaDemuxContext, ptr %31, i32 0, i32 4
  store i32 %30, ptr %32, align 4, !tbaa !94
  %33 = load ptr, ptr %4, align 8, !tbaa !27
  %34 = getelementptr inbounds nuw %struct.MatroskaDemuxContext, ptr %33, i32 0, i32 3
  store i32 1, ptr %34, align 8, !tbaa !211
  %35 = load ptr, ptr %4, align 8, !tbaa !27
  %36 = getelementptr inbounds nuw %struct.MatroskaDemuxContext, ptr %35, i32 0, i32 6
  store i32 0, ptr %36, align 8, !tbaa !240
  %37 = load i64, ptr %6, align 8, !tbaa !49
  %38 = load ptr, ptr %4, align 8, !tbaa !27
  %39 = getelementptr inbounds nuw %struct.MatroskaDemuxContext, ptr %38, i32 0, i32 5
  store i64 %37, ptr %39, align 8, !tbaa !141
  %40 = load i32, ptr %5, align 4, !tbaa !9
  %41 = icmp ne i32 %40, 0
  br i1 %41, label %42, label %52

42:                                               ; preds = %29
  %43 = load i32, ptr %5, align 4, !tbaa !9
  %44 = call i32 @ff_log2_c(i32 noundef %43) #16
  %45 = add nsw i32 %44, 7
  %46 = sdiv i32 %45, 8
  %47 = sext i32 %46 to i64
  %48 = load ptr, ptr %4, align 8, !tbaa !27
  %49 = getelementptr inbounds nuw %struct.MatroskaDemuxContext, ptr %48, i32 0, i32 5
  %50 = load i64, ptr %49, align 8, !tbaa !141
  %51 = sub nsw i64 %50, %47
  store i64 %51, ptr %49, align 8, !tbaa !141
  br label %52

52:                                               ; preds = %42, %29
  %53 = load i64, ptr %7, align 8, !tbaa !49
  %54 = trunc i64 %53 to i32
  call void @llvm.lifetime.end.p0(i64 8, ptr %7) #14
  ret i32 %54
}

; Function Attrs: alwaysinline nounwind uwtable
define internal i64 @avio_tell(ptr noundef %0) #3 {
  %2 = alloca ptr, align 8
  store ptr %0, ptr %2, align 8, !tbaa !169
  %3 = load ptr, ptr %2, align 8, !tbaa !169
  %4 = call i64 @avio_seek(ptr noundef %3, i64 noundef 0, i32 noundef 1)
  ret i64 %4
}

; Function Attrs: nounwind uwtable
define internal i32 @matroska_resync(ptr noundef %0, i64 noundef %1) #0 {
  %3 = alloca i32, align 4
  %4 = alloca ptr, align 8
  %5 = alloca i64, align 8
  %6 = alloca ptr, align 8
  %7 = alloca i32, align 4
  %8 = alloca i32, align 4
  store ptr %0, ptr %4, align 8, !tbaa !27
  store i64 %1, ptr %5, align 8, !tbaa !49
  call void @llvm.lifetime.start.p0(i64 8, ptr %6) #14
  %9 = load ptr, ptr %4, align 8, !tbaa !27
  %10 = getelementptr inbounds nuw %struct.MatroskaDemuxContext, ptr %9, i32 0, i32 1
  %11 = load ptr, ptr %10, align 8, !tbaa !79
  %12 = getelementptr inbounds nuw %struct.AVFormatContext, ptr %11, i32 0, i32 4
  %13 = load ptr, ptr %12, align 8, !tbaa !48
  store ptr %13, ptr %6, align 8, !tbaa !169
  call void @llvm.lifetime.start.p0(i64 4, ptr %7) #14
  %14 = load i64, ptr %5, align 8, !tbaa !49
  %15 = load ptr, ptr %6, align 8, !tbaa !169
  %16 = call i64 @avio_tell(ptr noundef %15)
  %17 = icmp slt i64 %14, %16
  br i1 %17, label %18, label %63

18:                                               ; preds = %2
  %19 = load ptr, ptr %6, align 8, !tbaa !169
  %20 = load i64, ptr %5, align 8, !tbaa !49
  %21 = add nsw i64 %20, 1
  %22 = call i64 @avio_seek(ptr noundef %19, i64 noundef %21, i32 noundef 0)
  %23 = icmp slt i64 %22, 0
  br i1 %23, label %24, label %63

24:                                               ; preds = %18
  %25 = load ptr, ptr %4, align 8, !tbaa !27
  %26 = getelementptr inbounds nuw %struct.MatroskaDemuxContext, ptr %25, i32 0, i32 1
  %27 = load ptr, ptr %26, align 8, !tbaa !79
  call void (ptr, i32, ptr, ...) @av_log(ptr noundef %27, i32 noundef 24, ptr noundef @.str.121)
  %28 = load ptr, ptr %6, align 8, !tbaa !169
  %29 = load ptr, ptr %6, align 8, !tbaa !169
  %30 = call i64 @avio_tell(ptr noundef %29)
  %31 = load ptr, ptr %6, align 8, !tbaa !169
  %32 = getelementptr inbounds nuw %struct.AVIOContext, ptr %31, i32 0, i32 1
  %33 = load ptr, ptr %32, align 8, !tbaa !378
  %34 = load ptr, ptr %6, align 8, !tbaa !169
  %35 = getelementptr inbounds nuw %struct.AVIOContext, ptr %34, i32 0, i32 3
  %36 = load ptr, ptr %35, align 8, !tbaa !379
  %37 = ptrtoint ptr %33 to i64
  %38 = ptrtoint ptr %36 to i64
  %39 = sub i64 %37, %38
  %40 = add nsw i64 %30, %39
  %41 = load i64, ptr %5, align 8, !tbaa !49
  %42 = add nsw i64 %41, 1
  %43 = icmp sgt i64 %40, %42
  br i1 %43, label %44, label %57

44:                                               ; preds = %24
  %45 = load ptr, ptr %6, align 8, !tbaa !169
  %46 = call i64 @avio_tell(ptr noundef %45)
  %47 = load ptr, ptr %6, align 8, !tbaa !169
  %48 = getelementptr inbounds nuw %struct.AVIOContext, ptr %47, i32 0, i32 1
  %49 = load ptr, ptr %48, align 8, !tbaa !378
  %50 = load ptr, ptr %6, align 8, !tbaa !169
  %51 = getelementptr inbounds nuw %struct.AVIOContext, ptr %50, i32 0, i32 3
  %52 = load ptr, ptr %51, align 8, !tbaa !379
  %53 = ptrtoint ptr %49 to i64
  %54 = ptrtoint ptr %52 to i64
  %55 = sub i64 %53, %54
  %56 = add nsw i64 %46, %55
  br label %60

57:                                               ; preds = %24
  %58 = load i64, ptr %5, align 8, !tbaa !49
  %59 = add nsw i64 %58, 1
  br label %60

60:                                               ; preds = %57, %44
  %61 = phi i64 [ %56, %44 ], [ %59, %57 ]
  %62 = call i64 @avio_seek(ptr noundef %28, i64 noundef %61, i32 noundef 0)
  br label %63

63:                                               ; preds = %60, %18, %2
  %64 = load ptr, ptr %6, align 8, !tbaa !169
  %65 = call i32 @avio_rb32(ptr noundef %64)
  store i32 %65, ptr %7, align 4, !tbaa !9
  br label %66

66:                                               ; preds = %103, %63
  %67 = load ptr, ptr %6, align 8, !tbaa !169
  %68 = call i32 @avio_feof(ptr noundef %67)
  %69 = icmp ne i32 %68, 0
  %70 = xor i1 %69, true
  br i1 %70, label %71, label %109

71:                                               ; preds = %66
  %72 = load i32, ptr %7, align 4, !tbaa !9
  %73 = icmp eq i32 %72, 357149030
  br i1 %73, label %95, label %74

74:                                               ; preds = %71
  %75 = load i32, ptr %7, align 4, !tbaa !9
  %76 = icmp eq i32 %75, 374648427
  br i1 %76, label %95, label %77

77:                                               ; preds = %74
  %78 = load i32, ptr %7, align 4, !tbaa !9
  %79 = icmp eq i32 %78, 475249515
  br i1 %79, label %95, label %80

80:                                               ; preds = %77
  %81 = load i32, ptr %7, align 4, !tbaa !9
  %82 = icmp eq i32 %81, 307544935
  br i1 %82, label %95, label %83

83:                                               ; preds = %80
  %84 = load i32, ptr %7, align 4, !tbaa !9
  %85 = icmp eq i32 %84, 290298740
  br i1 %85, label %95, label %86

86:                                               ; preds = %83
  %87 = load i32, ptr %7, align 4, !tbaa !9
  %88 = icmp eq i32 %87, 423732329
  br i1 %88, label %95, label %89

89:                                               ; preds = %86
  %90 = load i32, ptr %7, align 4, !tbaa !9
  %91 = icmp eq i32 %90, 524531317
  br i1 %91, label %95, label %92

92:                                               ; preds = %89
  %93 = load i32, ptr %7, align 4, !tbaa !9
  %94 = icmp eq i32 %93, 272869232
  br i1 %94, label %95, label %103

95:                                               ; preds = %92, %89, %86, %83, %80, %77, %74, %71
  %96 = load ptr, ptr %4, align 8, !tbaa !27
  %97 = load i32, ptr %7, align 4, !tbaa !9
  %98 = call i32 @matroska_reset_status(ptr noundef %96, i32 noundef %97, i64 noundef -1)
  %99 = load ptr, ptr %4, align 8, !tbaa !27
  %100 = getelementptr inbounds nuw %struct.MatroskaDemuxContext, ptr %99, i32 0, i32 2
  %101 = getelementptr inbounds [16 x %struct.MatroskaLevel], ptr %100, i64 0, i64 0
  %102 = getelementptr inbounds nuw %struct.MatroskaLevel, ptr %101, i32 0, i32 1
  store i64 -1, ptr %102, align 8, !tbaa !214
  store i32 0, ptr %3, align 4
  store i32 1, ptr %8, align 4
  br label %123

103:                                              ; preds = %92
  %104 = load i32, ptr %7, align 4, !tbaa !9
  %105 = shl i32 %104, 8
  %106 = load ptr, ptr %6, align 8, !tbaa !169
  %107 = call i32 @avio_r8(ptr noundef %106)
  %108 = or i32 %105, %107
  store i32 %108, ptr %7, align 4, !tbaa !9
  br label %66, !llvm.loop !380

109:                                              ; preds = %66
  %110 = load ptr, ptr %4, align 8, !tbaa !27
  %111 = getelementptr inbounds nuw %struct.MatroskaDemuxContext, ptr %110, i32 0, i32 21
  store i32 1, ptr %111, align 8, !tbaa !142
  %112 = load ptr, ptr %6, align 8, !tbaa !169
  %113 = getelementptr inbounds nuw %struct.AVIOContext, ptr %112, i32 0, i32 11
  %114 = load i32, ptr %113, align 4, !tbaa !186
  %115 = icmp ne i32 %114, 0
  br i1 %115, label %116, label %120

116:                                              ; preds = %109
  %117 = load ptr, ptr %6, align 8, !tbaa !169
  %118 = getelementptr inbounds nuw %struct.AVIOContext, ptr %117, i32 0, i32 11
  %119 = load i32, ptr %118, align 4, !tbaa !186
  br label %121

120:                                              ; preds = %109
  br label %121

121:                                              ; preds = %120, %116
  %122 = phi i32 [ %119, %116 ], [ -541478725, %120 ]
  store i32 %122, ptr %3, align 4
  store i32 1, ptr %8, align 4
  br label %123

123:                                              ; preds = %121, %95
  call void @llvm.lifetime.end.p0(i64 4, ptr %7) #14
  call void @llvm.lifetime.end.p0(i64 8, ptr %6) #14
  %124 = load i32, ptr %3, align 4
  ret i32 %124
}