; Function Attrs: nounwind uwtable
define internal fastcc i32 @matroska_resync(ptr noundef captures(none) %0, i64 noundef %1) unnamed_addr #0 {
  %3 = getelementptr inbounds nuw i8, ptr %0, i64 8
  %4 = load ptr, ptr %3, align 8, !tbaa !58
  %5 = getelementptr inbounds nuw i8, ptr %4, i64 32
  %6 = load ptr, ptr %5, align 8, !tbaa !43
  %7 = tail call i64 @avio_seek(ptr noundef %6, i64 noundef 0, i32 noundef 1) #15
  %8 = icmp slt i64 %1, %7
  br i1 %8, label %9, label %36

9:                                                ; preds = %2
  %10 = add nsw i64 %1, 1
  %11 = tail call i64 @avio_seek(ptr noundef %6, i64 noundef %10, i32 noundef 0) #15
  %12 = icmp slt i64 %11, 0
  br i1 %12, label %13, label %36

13:                                               ; preds = %9
  %14 = load ptr, ptr %3, align 8, !tbaa !58
  tail call void (ptr, i32, ptr, ...) @av_log(ptr noundef %14, i32 noundef 24, ptr noundef nonnull @.str.121) #15
  %15 = tail call i64 @avio_seek(ptr noundef %6, i64 noundef 0, i32 noundef 1) #15
  %16 = getelementptr inbounds nuw i8, ptr %6, i64 8
  %17 = load ptr, ptr %16, align 8, !tbaa !473
  %18 = getelementptr inbounds nuw i8, ptr %6, i64 24
  %19 = load ptr, ptr %18, align 8, !tbaa !474
  %20 = ptrtoint ptr %17 to i64
  %21 = ptrtoint ptr %19 to i64
  %22 = add i64 %15, %20
  %23 = sub i64 %22, %21
  %24 = icmp sgt i64 %23, %10
  br i1 %24, label %25, label %33

25:                                               ; preds = %13
  %26 = tail call i64 @avio_seek(ptr noundef nonnull %6, i64 noundef 0, i32 noundef 1) #15
  %27 = load ptr, ptr %16, align 8, !tbaa !473
  %28 = load ptr, ptr %18, align 8, !tbaa !474
  %29 = ptrtoint ptr %27 to i64
  %30 = ptrtoint ptr %28 to i64
  %31 = add i64 %26, %29
  %32 = sub i64 %31, %30
  br label %33

33:                                               ; preds = %13, %25
  %34 = phi i64 [ %32, %25 ], [ %10, %13 ]
  %35 = tail call i64 @avio_seek(ptr noundef nonnull %6, i64 noundef %34, i32 noundef 0) #15
  br label %36

36:                                               ; preds = %33, %9, %2
  %37 = tail call i32 @avio_rb32(ptr noundef %6) #15
  %38 = tail call i32 @avio_feof(ptr noundef %6) #15
  %.not53 = icmp eq i32 %38, 0
  br i1 %.not53, label %.lr.ph, label %._crit_edge

.lr.ph:                                           ; preds = %36, %54
  %.054 = phi i32 [ %57, %54 ], [ %37, %36 ]
  switch i32 %.054, label %54 [
    i32 524531317, label %matroska_reset_status.exit
    i32 475249515, label %matroska_reset_status.exit
    i32 423732329, label %matroska_reset_status.exit
    i32 374648427, label %matroska_reset_status.exit
    i32 357149030, label %matroska_reset_status.exit
    i32 307544935, label %matroska_reset_status.exit
    i32 290298740, label %matroska_reset_status.exit
    i32 272869232, label %matroska_reset_status.exit
  ]

matroska_reset_status.exit:                       ; preds = %.lr.ph, %.lr.ph, %.lr.ph, %.lr.ph, %.lr.ph, %.lr.ph, %.lr.ph, %.lr.ph
  %39 = load ptr, ptr %3, align 8, !tbaa !58
  %40 = getelementptr inbounds nuw i8, ptr %39, i64 32
  %41 = load ptr, ptr %40, align 8, !tbaa !43
  %42 = tail call i64 @avio_seek(ptr noundef %41, i64 noundef 0, i32 noundef 1) #15
  %43 = getelementptr inbounds nuw i8, ptr %0, i64 276
  store i32 %.054, ptr %43, align 4, !tbaa !113
  %44 = getelementptr inbounds nuw i8, ptr %0, i64 272
  store i32 1, ptr %44, align 8, !tbaa !114
  %45 = getelementptr inbounds nuw i8, ptr %0, i64 288
  store i32 0, ptr %45, align 8, !tbaa !115
  %46 = lshr i32 %.054, 24
  %47 = zext nneg i32 %46 to i64
  %48 = getelementptr inbounds nuw [256 x i8], ptr @ff_log2_tab, i64 0, i64 %47
  %49 = load i8, ptr %48, align 1, !tbaa !119
  %50 = zext i8 %49 to i64
  %.lhs.trunc.i = add nuw nsw i64 %50, 31
  %.zext.i = lshr i64 %.lhs.trunc.i, 3
  %51 = sub nsw i64 %42, %.zext.i
  %52 = getelementptr inbounds nuw i8, ptr %0, i64 280
  store i64 %51, ptr %52, align 8, !tbaa !116
  %53 = getelementptr inbounds nuw i8, ptr %0, i64 24
  store i64 -1, ptr %53, align 8, !tbaa !396
  br label %62

54:                                               ; preds = %.lr.ph
  %55 = shl i32 %.054, 8
  %56 = tail call i32 @avio_r8(ptr noundef %6) #15
  %57 = or i32 %56, %55
  %58 = tail call i32 @avio_feof(ptr noundef %6) #15
  %.not = icmp eq i32 %58, 0
  br i1 %.not, label %.lr.ph, label %._crit_edge, !llvm.loop !475

._crit_edge:                                      ; preds = %54, %36
  %59 = getelementptr inbounds nuw i8, ptr %0, i64 488
  store i32 1, ptr %59, align 8, !tbaa !374
  %60 = getelementptr inbounds nuw i8, ptr %6, i64 84
  %61 = load i32, ptr %60, align 4, !tbaa !387
  %.not50 = icmp eq i32 %61, 0
  %spec.select = select i1 %.not50, i32 -541478725, i32 %61
  br label %62

62:                                               ; preds = %._crit_edge, %matroska_reset_status.exit
  %.046 = phi i32 [ 0, %matroska_reset_status.exit ], [ %spec.select, %._crit_edge ]
  ret i32 %.046
}